target datalayout = "e-m:e-p270:32:32-p271:32:32-p272:64:64-i64:64-i128:128-f80:128-n8:16:32:64-S128"
target triple = "x86_64-pc-linux-gnu"

%struct.Qureg = type { i32, i32, i32, i64, i64, i32, i32, %struct.ComplexArray, %struct.ComplexArray, %struct.ComplexArray, ptr, ptr, ptr, ptr, ptr, ptr }
%struct.ComplexArray = type { ptr, ptr }
%struct.QASMLogger = type { ptr, i32, i32, i32 }

@__func__.addStringToQASM = private unnamed_addr constant [16 x i8] c"addStringToQASM\00", align 1
@.str.3 = private unnamed_addr constant [3 x i8] c"%s\00", align 1
@.str.47 = private unnamed_addr constant [12 x i8] c"an unsigned\00", align 1
@.str.48 = private unnamed_addr constant [19 x i8] c"a two's complement\00", align 1
@.str.51 = private unnamed_addr constant [5 x i8] c"%d, \00", align 1
@.str.52 = private unnamed_addr constant [5 x i8] c"%d}\0A\00", align 1
@getPhaseFuncSymbol.xyz = internal global [7 x i8] c"xyztrvu", align 1
@getPhaseFuncSymbol.abc = internal global [24 x i8] c"abcdefghjklmnpqrstuvwxyz", align 16
@__func__.getPhaseFuncSymbol = private unnamed_addr constant [19 x i8] c"getPhaseFuncSymbol\00", align 1
@.str.56 = private unnamed_addr constant [63 x i8] c"  upon substates informed by qubits (under %s binary encoding)\00", align 1
@.str.57 = private unnamed_addr constant [16 x i8] c"//     |%c> = {\00", align 1
@.str.58 = private unnamed_addr constant [17 x i8] c"//     |x%d> = {\00", align 1
@__func__.addMultiVarRegsToQASM = private unnamed_addr constant [22 x i8] c"addMultiVarRegsToQASM\00", align 1

; Function Attrs: nounwind uwtable
define void @addStringToQASM(ptr noundef byval(%struct.Qureg) align 8 %0, ptr noundef %1, i32 noundef %2) #0 {
  %4 = alloca ptr, align 8
  %5 = alloca i32, align 4
  %6 = alloca ptr, align 8
  %7 = alloca i32, align 4
  %8 = alloca i32, align 4
  %9 = alloca i32, align 4
  %10 = alloca ptr, align 8
  %11 = alloca i32, align 4
  store ptr %1, ptr %4, align 8, !tbaa !24
  store i32 %2, ptr %5, align 4, !tbaa !25
  call void @llvm.lifetime.start.p0(i64 8, ptr %6) #7
  %12 = getelementptr inbounds nuw %struct.Qureg, ptr %0, i32 0, i32 15
  %13 = load ptr, ptr %12, align 8, !tbaa !10
  %14 = getelementptr inbounds nuw %struct.QASMLogger, ptr %13, i32 0, i32 0
  %15 = load ptr, ptr %14, align 8, !tbaa !21
  store ptr %15, ptr %6, align 8, !tbaa !24
  call void @llvm.lifetime.start.p0(i64 4, ptr %7) #7
  %16 = getelementptr inbounds nuw %struct.Qureg, ptr %0, i32 0, i32 15
  %17 = load ptr, ptr %16, align 8, !tbaa !10
  %18 = getelementptr inbounds nuw %struct.QASMLogger, ptr %17, i32 0, i32 1
  %19 = load i32, ptr %18, align 8, !tbaa !20
  store i32 %19, ptr %7, align 4, !tbaa !25
  call void @llvm.lifetime.start.p0(i64 4, ptr %8) #7
  %20 = getelementptr inbounds nuw %struct.Qureg, ptr %0, i32 0, i32 15
  %21 = load ptr, ptr %20, align 8, !tbaa !10
  %22 = getelementptr inbounds nuw %struct.QASMLogger, ptr %21, i32 0, i32 2
  %23 = load i32, ptr %22, align 4, !tbaa !23
  store i32 %23, ptr %8, align 4, !tbaa !25
  %24 = load i32, ptr %5, align 4, !tbaa !25
  %25 = load i32, ptr %8, align 4, !tbaa !25
  %26 = add nsw i32 %24, %25
  %27 = load i32, ptr %7, align 4, !tbaa !25
  %28 = icmp sgt i32 %26, %27
  br i1 %28, label %29, label %57

29:                                               ; preds = %3
  call void @llvm.lifetime.start.p0(i64 4, ptr %9) #7
  %30 = load i32, ptr %7, align 4, !tbaa !25
  %31 = mul nsw i32 2, %30
  store i32 %31, ptr %9, align 4, !tbaa !25
  %32 = load i32, ptr %5, align 4, !tbaa !25
  %33 = load i32, ptr %8, align 4, !tbaa !25
  %34 = add nsw i32 %32, %33
  %35 = load i32, ptr %9, align 4, !tbaa !25
  %36 = icmp sgt i32 %34, %35
  br i1 %36, label %37, label %38

37:                                               ; preds = %29
  call void @raiseQASMBufferOverflow(ptr noundef @__func__.addStringToQASM)
  br label %38

38:                                               ; preds = %37, %29
  call void @llvm.lifetime.start.p0(i64 8, ptr %10) #7
  %39 = load i32, ptr %9, align 4, !tbaa !25
  %40 = sext i32 %39 to i64
  %41 = mul i64 %40, 1
  %42 = call noalias ptr @malloc(i64 noundef %41) #8
  store ptr %42, ptr %10, align 8, !tbaa !24
  %43 = load ptr, ptr %10, align 8, !tbaa !24
  %44 = load ptr, ptr %6, align 8, !tbaa !24
  %45 = call i32 (ptr, ptr, ...) @sprintf(ptr noundef %43, ptr noundef @.str.3, ptr noundef %44) #7
  %46 = load ptr, ptr %6, align 8, !tbaa !24
  call void @free(ptr noundef %46) #7
  %47 = load i32, ptr %9, align 4, !tbaa !25
  %48 = getelementptr inbounds nuw %struct.Qureg, ptr %0, i32 0, i32 15
  %49 = load ptr, ptr %48, align 8, !tbaa !10
  %50 = getelementptr inbounds nuw %struct.QASMLogger, ptr %49, i32 0, i32 1
  store i32 %47, ptr %50, align 8, !tbaa !20
  %51 = load ptr, ptr %10, align 8, !tbaa !24
  %52 = getelementptr inbounds nuw %struct.Qureg, ptr %0, i32 0, i32 15
  %53 = load ptr, ptr %52, align 8, !tbaa !10
  %54 = getelementptr inbounds nuw %struct.QASMLogger, ptr %53, i32 0, i32 0
  store ptr %51, ptr %54, align 8, !tbaa !21
  %55 = load i32, ptr %9, align 4, !tbaa !25
  store i32 %55, ptr %7, align 4, !tbaa !25
  %56 = load ptr, ptr %10, align 8, !tbaa !24
  store ptr %56, ptr %6, align 8, !tbaa !24
  call void @llvm.lifetime.end.p0(i64 8, ptr %10) #7
  call void @llvm.lifetime.end.p0(i64 4, ptr %9) #7
  br label %57

57:                                               ; preds = %38, %3
  call void @llvm.lifetime.start.p0(i64 4, ptr %11) #7
  %58 = load ptr, ptr %6, align 8, !tbaa !24
  %59 = load i32, ptr %8, align 4, !tbaa !25
  %60 = sext i32 %59 to i64
  %61 = getelementptr inbounds i8, ptr %58, i64 %60
  %62 = load i32, ptr %7, align 4, !tbaa !25
  %63 = load i32, ptr %8, align 4, !tbaa !25
  %64 = sub nsw i32 %62, %63
  %65 = sext i32 %64 to i64
  %66 = load ptr, ptr %4, align 8, !tbaa !24
  %67 = call i32 (ptr, i64, ptr, ...) @snprintf(ptr noundef %61, i64 noundef %65, ptr noundef @.str.3, ptr noundef %66) #7
  store i32 %67, ptr %11, align 4, !tbaa !25
  %68 = load i32, ptr %11, align 4, !tbaa !25
  %69 = getelementptr inbounds nuw %struct.Qureg, ptr %0, i32 0, i32 15
  %70 = load ptr, ptr %69, align 8, !tbaa !10
  %71 = getelementptr inbounds nuw %struct.QASMLogger, ptr %70, i32 0, i32 2
  %72 = load i32, ptr %71, align 4, !tbaa !23
  %73 = add nsw i32 %72, %68
  store i32 %73, ptr %71, align 4, !tbaa !23
  call void @llvm.lifetime.end.p0(i64 4, ptr %11) #7
  call void @llvm.lifetime.end.p0(i64 4, ptr %8) #7
  call void @llvm.lifetime.end.p0(i64 4, ptr %7) #7
  call void @llvm.lifetime.end.p0(i64 8, ptr %6) #7
  ret void
}

; Function Attrs: nounwind uwtable
define signext i8 @getPhaseFuncSymbol(i32 noundef %0, i32 noundef %1) #0 {
  %3 = alloca i8, align 1
  %4 = alloca i32, align 4
  %5 = alloca i32, align 4
  store i32 %0, ptr %4, align 4, !tbaa !25
  store i32 %1, ptr %5, align 4, !tbaa !25
  %6 = load i32, ptr %4, align 4, !tbaa !25
  %7 = icmp sle i32 %6, 7
  br i1 %7, label %8, label %13

8:                                                ; preds = %2
  %9 = load i32, ptr %5, align 4, !tbaa !25
  %10 = sext i32 %9 to i64
  %11 = getelementptr inbounds [7 x i8], ptr @getPhaseFuncSymbol.xyz, i64 0, i64 %10
  %12 = load i8, ptr %11, align 1, !tbaa !34
  store i8 %12, ptr %3, align 1
  br label %22

13:                                               ; preds = %2
  %14 = load i32, ptr %4, align 4, !tbaa !25
  %15 = icmp sle i32 %14, 24
  br i1 %15, label %16, label %21

16:                                               ; preds = %13
  %17 = load i32, ptr %5, align 4, !tbaa !25
  %18 = sext i32 %17 to i64
  %19 = getelementptr inbounds [24 x i8], ptr @getPhaseFuncSymbol.abc, i64 0, i64 %18
  %20 = load i8, ptr %19, align 1, !tbaa !34
  store i8 %20, ptr %3, align 1
  br label %22

21:                                               ; preds = %13
  call void @raiseQASMBufferOverflow(ptr noundef @__func__.getPhaseFuncSymbol)
  store i8 120, ptr %3, align 1
  br label %22

22:                                               ; preds = %21, %16, %8
  %23 = load i8, ptr %3, align 1
  ret i8 %23
}

; Function Attrs: nounwind uwtable
define void @addMultiVarRegsToQASM(ptr noundef byval(%struct.Qureg) align 8 %0, ptr noundef %1, ptr noundef %2, i32 noundef %3, i32 noundef %4) #0 {
  %6 = alloca ptr, align 8
  %7 = alloca ptr, align 8
  %8 = alloca i32, align 4
  %9 = alloca i32, align 4
  %10 = alloca [1024 x i8], align 16
  %11 = alloca [1025 x i8], align 16
  %12 = alloca i32, align 4
  %13 = alloca i32, align 4
  %14 = alloca i32, align 4
  %15 = alloca i32, align 4
  %16 = alloca i32, align 4
  store ptr %1, ptr %6, align 8, !tbaa !26
  store ptr %2, ptr %7, align 8, !tbaa !26
  store i32 %3, ptr %8, align 4, !tbaa !25
  store i32 %4, ptr %9, align 4, !tbaa !25
  call void @llvm.lifetime.start.p0(i64 1024, ptr %10) #7
  %17 = load i32, ptr %9, align 4, !tbaa !25
  %18 = icmp eq i32 %17, 0
  br i1 %18, label %19, label %22

19:                                               ; preds = %5
  %20 = getelementptr inbounds [1024 x i8], ptr %10, i64 0, i64 0
  %21 = call i32 (ptr, ptr, ...) @sprintf(ptr noundef %20, ptr noundef @.str.47) #7
  br label %22

22:                                               ; preds = %19, %5
  %23 = load i32, ptr %9, align 4, !tbaa !25
  %24 = icmp eq i32 %23, 1
  br i1 %24, label %25, label %28

25:                                               ; preds = %22
  %26 = getelementptr inbounds [1024 x i8], ptr %10, i64 0, i64 0
  %27 = call i32 (ptr, ptr, ...) @sprintf(ptr noundef %26, ptr noundef @.str.48) #7
  br label %28

28:                                               ; preds = %25, %22
  %29 = getelementptr inbounds [1024 x i8], ptr %10, i64 0, i64 0
  call void (ptr, ptr, ...) @qasm_recordComment(ptr noundef byval(%struct.Qureg) align 8 %0, ptr noundef @.str.56, ptr noundef %29)
  call void @llvm.lifetime.start.p0(i64 1025, ptr %11) #7
  call void @llvm.lifetime.start.p0(i64 4, ptr %12) #7
  store i32 0, ptr %12, align 4, !tbaa !25
  call void @llvm.lifetime.start.p0(i64 4, ptr %13) #7
  store i32 0, ptr %13, align 4, !tbaa !25
  call void @llvm.lifetime.start.p0(i64 4, ptr %14) #7
  store i32 0, ptr %14, align 4, !tbaa !25
  br label %30

30:                                               ; preds = %111, %28
  %31 = load i32, ptr %14, align 4, !tbaa !25
  %32 = load i32, ptr %8, align 4, !tbaa !25
  %33 = icmp slt i32 %31, %32
  br i1 %33, label %35, label %34

34:                                               ; preds = %30
  store i32 2, ptr %15, align 4
  call void @llvm.lifetime.end.p0(i64 4, ptr %14) #7
  br label %114

35:                                               ; preds = %30
  store i32 0, ptr %12, align 4, !tbaa !25
  %36 = load i32, ptr %8, align 4, !tbaa !25
  %37 = icmp sle i32 %36, 24
  br i1 %37, label %38, label %53

38:                                               ; preds = %35
  %39 = getelementptr inbounds [1025 x i8], ptr %11, i64 0, i64 0
  %40 = load i32, ptr %12, align 4, !tbaa !25
  %41 = sext i32 %40 to i64
  %42 = getelementptr inbounds i8, ptr %39, i64 %41
  %43 = load i32, ptr %12, align 4, !tbaa !25
  %44 = sub nsw i32 1024, %43
  %45 = sext i32 %44 to i64
  %46 = load i32, ptr %8, align 4, !tbaa !25
  %47 = load i32, ptr %14, align 4, !tbaa !25
  %48 = call signext i8 @getPhaseFuncSymbol(i32 noundef %46, i32 noundef %47)
  %49 = sext i8 %48 to i32
  %50 = call i32 (ptr, i64, ptr, ...) @snprintf(ptr noundef %42, i64 noundef %45, ptr noundef @.str.57, i32 noundef %49) #7
  %51 = load i32, ptr %12, align 4, !tbaa !25
  %52 = add nsw i32 %51, %50
  store i32 %52, ptr %12, align 4, !tbaa !25
  br label %65

53:                                               ; preds = %35
  %54 = getelementptr inbounds [1025 x i8], ptr %11, i64 0, i64 0
  %55 = load i32, ptr %12, align 4, !tbaa !25
  %56 = sext i32 %55 to i64
  %57 = getelementptr inbounds i8, ptr %54, i64 %56
  %58 = load i32, ptr %12, align 4, !tbaa !25
  %59 = sub nsw i32 1024, %58
  %60 = sext i32 %59 to i64
  %61 = load i32, ptr %14, align 4, !tbaa !25
  %62 = call i32 (ptr, i64, ptr, ...) @snprintf(ptr noundef %57, i64 noundef %60, ptr noundef @.str.58, i32 noundef %61) #7
  %63 = load i32, ptr %12, align 4, !tbaa !25
  %64 = add nsw i32 %63, %62
  store i32 %64, ptr %12, align 4, !tbaa !25
  br label %65

65:                                               ; preds = %53, %38
  call void @llvm.lifetime.start.p0(i64 4, ptr %16) #7
  store i32 0, ptr %16, align 4, !tbaa !25
  br label %66

66:                                               ; preds = %101, %65
  %67 = load i32, ptr %16, align 4, !tbaa !25
  %68 = load ptr, ptr %7, align 8, !tbaa !26
  %69 = load i32, ptr %14, align 4, !tbaa !25
  %70 = sext i32 %69 to i64
  %71 = getelementptr inbounds i32, ptr %68, i64 %70
  %72 = load i32, ptr %71, align 4, !tbaa !25
  %73 = icmp slt i32 %67, %72
  br i1 %73, label %75, label %74

74:                                               ; preds = %66
  store i32 5, ptr %15, align 4
  call void @llvm.lifetime.end.p0(i64 4, ptr %16) #7
  br label %104

75:                                               ; preds = %66
  %76 = getelementptr inbounds [1025 x i8], ptr %11, i64 0, i64 0
  %77 = load i32, ptr %12, align 4, !tbaa !25
  %78 = sext i32 %77 to i64
  %79 = getelementptr inbounds i8, ptr %76, i64 %78
  %80 = load i32, ptr %12, align 4, !tbaa !25
  %81 = sub nsw i32 1024, %80
  %82 = sext i32 %81 to i64
  %83 = load i32, ptr %16, align 4, !tbaa !25
  %84 = load ptr, ptr %7, align 8, !tbaa !26
  %85 = load i32, ptr %14, align 4, !tbaa !25
  %86 = sext i32 %85 to i64
  %87 = getelementptr inbounds i32, ptr %84, i64 %86
  %88 = load i32, ptr %87, align 4, !tbaa !25
  %89 = sub nsw i32 %88, 1
  %90 = icmp slt i32 %83, %89
  %91 = select i1 %90, ptr @.str.51, ptr @.str.52
  %92 = load ptr, ptr %6, align 8, !tbaa !26
  %93 = load i32, ptr %13, align 4, !tbaa !25
  %94 = add nsw i32 %93, 1
  store i32 %94, ptr %13, align 4, !tbaa !25
  %95 = sext i32 %93 to i64
  %96 = getelementptr inbounds i32, ptr %92, i64 %95
  %97 = load i32, ptr %96, align 4, !tbaa !25
  %98 = call i32 (ptr, i64, ptr, ...) @snprintf(ptr noundef %79, i64 noundef %82, ptr noundef %91, i32 noundef %97) #7
  %99 = load i32, ptr %12, align 4, !tbaa !25
  %100 = add nsw i32 %99, %98
  store i32 %100, ptr %12, align 4, !tbaa !25
  br label %101

101:                                              ; preds = %75
  %102 = load i32, ptr %16, align 4, !tbaa !25
  %103 = add nsw i32 %102, 1
  store i32 %103, ptr %16, align 4, !tbaa !25
  br label %66

104:                                              ; preds = %74
  %105 = load i32, ptr %12, align 4, !tbaa !25
  %106 = icmp sge i32 %105, 1024
  br i1 %106, label %107, label %108

107:                                              ; preds = %104
  call void @raiseQASMBufferOverflow(ptr noundef @__func__.addMultiVarRegsToQASM)
  br label %108

108:                                              ; preds = %107, %104
  %109 = getelementptr inbounds [1025 x i8], ptr %11, i64 0, i64 0
  %110 = load i32, ptr %12, align 4, !tbaa !25
  call void @addStringToQASM(ptr noundef byval(%struct.Qureg) align 8 %0, ptr noundef %109, i32 noundef %110)
  br label %111

111:                                              ; preds = %108
  %112 = load i32, ptr %14, align 4, !tbaa !25
  %113 = add nsw i32 %112, 1
  store i32 %113, ptr %14, align 4, !tbaa !25
  br label %30

114:                                              ; preds = %34
  call void @llvm.lifetime.end.p0(i64 4, ptr %13) #7
  call void @llvm.lifetime.end.p0(i64 4, ptr %12) #7
  call void @llvm.lifetime.end.p0(i64 1025, ptr %11) #7
  call void @llvm.lifetime.end.p0(i64 1024, ptr %10) #7
  ret void
}