; Function Attrs: nounwind uwtable
define void @addMultiVarRegsToQASM(ptr noundef readonly byval(%struct.Qureg) align 8 captures(none) %0, ptr noundef readonly captures(none) %1, ptr noundef readonly captures(none) %2, i32 noundef %3, i32 noundef %4) local_unnamed_addr #0 {
  %6 = alloca [1024 x i8], align 16
  %7 = alloca [1025 x i8], align 16
  call void @llvm.lifetime.start.p0(i64 1024, ptr nonnull %6) #16
  switch i32 %4, label %10 [
    i32 0, label %8
    i32 1, label %9
  ]

8:                                                ; preds = %5
  call void @llvm.memcpy.p0.p0.i64(ptr noundef nonnull align 16 dereferenceable(12) %6, ptr noundef nonnull align 1 dereferenceable(12) @.str.47, i64 12, i1 false)
  br label %10

9:                                                ; preds = %5
  call void @llvm.memcpy.p0.p0.i64(ptr noundef nonnull align 16 dereferenceable(19) %6, ptr noundef nonnull align 1 dereferenceable(19) @.str.48, i64 19, i1 false)
  br label %10

10:                                               ; preds = %8, %5, %9
  call void (ptr, ptr, ...) @qasm_recordComment(ptr noundef nonnull byval(%struct.Qureg) align 8 %0, ptr noundef nonnull @.str.56, ptr noundef nonnull %6)
  call void @llvm.lifetime.start.p0(i64 1025, ptr nonnull %7) #16
  %11 = icmp sgt i32 %3, 0
  br i1 %11, label %.lr.ph43, label %._crit_edge44

.lr.ph43:                                         ; preds = %10
  %12 = icmp samesign ult i32 %3, 25
  %13 = icmp samesign ult i32 %3, 8
  %.sroa.3.0..sroa_idx = getelementptr inbounds nuw i8, ptr %0, i64 128
  %wide.trip.count = zext nneg i32 %3 to i64
  br label %14

._crit_edge44:                                    ; preds = %addStringToQASM.exit, %10
  call void @llvm.lifetime.end.p0(i64 1025, ptr nonnull %7) #16
  call void @llvm.lifetime.end.p0(i64 1024, ptr nonnull %6) #16
  ret void

14:                                               ; preds = %.lr.ph43, %addStringToQASM.exit
  %indvars.iv47 = phi i64 [ 0, %.lr.ph43 ], [ %indvars.iv.next48, %addStringToQASM.exit ]
  %.02940 = phi i32 [ 0, %.lr.ph43 ], [ %.1.lcssa, %addStringToQASM.exit ]
  br i1 %12, label %getPhaseFuncSymbol.exit, label %19

getPhaseFuncSymbol.exit:                          ; preds = %14
  %15 = getelementptr inbounds nuw [7 x i8], ptr @getPhaseFuncSymbol.xyz, i64 0, i64 %indvars.iv47
  %16 = getelementptr inbounds nuw [24 x i8], ptr @getPhaseFuncSymbol.abc, i64 0, i64 %indvars.iv47
  %.0.i.in = select i1 %13, ptr %15, ptr %16
  %.0.i = load i8, ptr %.0.i.in, align 1, !tbaa !26
  %17 = sext i8 %.0.i to i32
  %18 = call i32 (ptr, i64, ptr, ...) @snprintf(ptr noundef nonnull dereferenceable(1) %7, i64 noundef 1024, ptr noundef nonnull @.str.57, i32 noundef %17) #16
  br label %22

19:                                               ; preds = %14
  %20 = trunc nuw nsw i64 %indvars.iv47 to i32
  %21 = call i32 (ptr, i64, ptr, ...) @snprintf(ptr noundef nonnull dereferenceable(1) %7, i64 noundef 1024, ptr noundef nonnull @.str.58, i32 noundef %20) #16
  br label %22

22:                                               ; preds = %19, %getPhaseFuncSymbol.exit
  %.030 = phi i32 [ %18, %getPhaseFuncSymbol.exit ], [ %21, %19 ]
  %23 = getelementptr inbounds nuw i32, ptr %2, i64 %indvars.iv47
  %24 = load i32, ptr %23, align 4, !tbaa !24
  %25 = icmp sgt i32 %24, 0
  br i1 %25, label %.lr.ph.preheader, label %._crit_edge

.lr.ph.preheader:                                 ; preds = %22
  %26 = sext i32 %.02940 to i64
  br label %.lr.ph

._crit_edge.loopexit:                             ; preds = %.lr.ph
  %27 = trunc nsw i64 %indvars.iv.next to i32
  br label %._crit_edge

._crit_edge:                                      ; preds = %._crit_edge.loopexit, %22
  %.131.lcssa = phi i32 [ %.030, %22 ], [ %40, %._crit_edge.loopexit ]
  %.1.lcssa = phi i32 [ %.02940, %22 ], [ %27, %._crit_edge.loopexit ]
  %28 = icmp sgt i32 %.131.lcssa, 1023
  br i1 %28, label %44, label %45

.lr.ph:                                           ; preds = %.lr.ph.preheader, %.lr.ph
  %indvars.iv = phi i64 [ %26, %.lr.ph.preheader ], [ %indvars.iv.next, %.lr.ph ]
  %29 = phi i32 [ %24, %.lr.ph.preheader ], [ %42, %.lr.ph ]
  %.038 = phi i32 [ 0, %.lr.ph.preheader ], [ %41, %.lr.ph ]
  %.13136 = phi i32 [ %.030, %.lr.ph.preheader ], [ %40, %.lr.ph ]
  %30 = sext i32 %.13136 to i64
  %31 = getelementptr inbounds i8, ptr %7, i64 %30
  %32 = sub nsw i32 1024, %.13136
  %33 = sext i32 %32 to i64
  %34 = add nsw i32 %29, -1
  %35 = icmp slt i32 %.038, %34
  %36 = select i1 %35, ptr @.str.51, ptr @.str.52
  %indvars.iv.next = add nsw i64 %indvars.iv, 1
  %37 = getelementptr inbounds i32, ptr %1, i64 %indvars.iv
  %38 = load i32, ptr %37, align 4, !tbaa !24
  %39 = call i32 (ptr, i64, ptr, ...) @snprintf(ptr noundef nonnull %31, i64 noundef %33, ptr noundef nonnull %36, i32 noundef %38) #16
  %40 = add nsw i32 %39, %.13136
  %41 = add nuw nsw i32 %.038, 1
  %42 = load i32, ptr %23, align 4, !tbaa !24
  %43 = icmp slt i32 %41, %42
  br i1 %43, label %.lr.ph, label %._crit_edge.loopexit

44:                                               ; preds = %._crit_edge
  call void @raiseQASMBufferOverflow(ptr noundef nonnull @__func__.addMultiVarRegsToQASM) #16
  br label %45

45:                                               ; preds = %44, %._crit_edge
  %.sroa.3.0.copyload = load ptr, ptr %.sroa.3.0..sroa_idx, align 8
  %46 = load ptr, ptr %.sroa.3.0.copyload, align 8, !tbaa !18
  %47 = getelementptr inbounds nuw i8, ptr %.sroa.3.0.copyload, i64 8
  %48 = load i32, ptr %47, align 8, !tbaa !17
  %49 = getelementptr inbounds nuw i8, ptr %.sroa.3.0.copyload, i64 12
  %50 = load i32, ptr %49, align 4, !tbaa !20
  %51 = add nsw i32 %50, %.131.lcssa
  %52 = icmp sgt i32 %51, %48
  br i1 %52, label %53, label %addStringToQASM.exit

53:                                               ; preds = %45
  %54 = shl nsw i32 %48, 1
  %55 = icmp sgt i32 %51, %54
  br i1 %55, label %56, label %57

56:                                               ; preds = %53
  call void @raiseQASMBufferOverflow(ptr noundef nonnull @__func__.addStringToQASM) #16
  br label %57

57:                                               ; preds = %56, %53
  %58 = sext i32 %54 to i64
  %59 = call noalias ptr @malloc(i64 noundef %58) #15
  %strcpy.i = call ptr @strcpy(ptr noundef nonnull dereferenceable(1) %59, ptr noundef nonnull dereferenceable(1) %46)
  call void @free(ptr noundef %46) #16
  store i32 %54, ptr %47, align 8, !tbaa !17
  store ptr %59, ptr %.sroa.3.0.copyload, align 8, !tbaa !18
  br label %addStringToQASM.exit

addStringToQASM.exit:                             ; preds = %45, %57
  %.020.i = phi i32 [ %54, %57 ], [ %48, %45 ]
  %.0.i34 = phi ptr [ %59, %57 ], [ %46, %45 ]
  %60 = sext i32 %50 to i64
  %61 = getelementptr inbounds i8, ptr %.0.i34, i64 %60
  %62 = sub nsw i32 %.020.i, %50
  %63 = sext i32 %62 to i64
  %64 = call i32 (ptr, i64, ptr, ...) @snprintf(ptr noundef %61, i64 noundef %63, ptr noundef nonnull @.str.3, ptr noundef nonnull %7) #16
  %65 = load i32, ptr %49, align 4, !tbaa !20
  %66 = add nsw i32 %65, %64
  store i32 %66, ptr %49, align 4, !tbaa !20
  %indvars.iv.next48 = add nuw nsw i64 %indvars.iv47, 1
  %exitcond.not = icmp eq i64 %indvars.iv.next48, %wide.trip.count
  br i1 %exitcond.not, label %._crit_edge44, label %14
}